(lp1
(lp2
I1
aI0
aI0
aI1
aI0
aI0
aI1
aI0
aI0
aI0
aI0
aI1
aF0.78000000000000003
aF20.699999999999999
aI4
aF13.959099999999999
aa(lp3
I1
aI0
aI0
aI1
aI0
aI0
aI1
aI0
aI0
aI0
aI0
aI1
aF0.94999999999999996
aF36.700000000000003
aI1
aF18.337399999999999
aa(lp4
I1
aI0
aI0
aI1
aI0
aI0
aI1
aI0
aI0
aI0
aI0
aI1
aF1
aF46.700000000000003
aI0
aF37.082299999999996
aa(lp5
I1
aI0
aI0
aI1
aI0
aI0
aI1
aI0
aI0
aI0
aI0
aI1
aF1.1000000000000001
aF40.240000000000002
aI3
aF10.917299999999999
aa(lp6
I1
aI0
aI0
aI1
aI0
aI0
aI1
aI0
aI0
aI0
aI0
aI1
aF0.84999999999999998
aF10.9
aI5
aF5.4131299999999998
aa(lp7
I1
aI0
aI0
aI1
aI0
aI0
aI1
aI0
aI0
aI0
aI0
aI1
aF1.1399999999999999
aF35.899999999999999
aI7
aF7.4575100000000001
aa(lp8
I1
aI0
aI0
aI1
aI0
aI0
aI1
aI0
aI0
aI0
aI0
aI1
aF1.1000000000000001
aF32.299999999999997
aI2
aF19.609500000000001
aa(lp9
I1
aI0
aI0
aI1
aI0
aI0
aI1
aI0
aI0
aI0
aI0
aI1
aF1.2
aF42.840000000000003
aI6
aF37.605200000000004
aa(lp10
I1
aI0
aI0
aI1
aI0
aI0
aI0
aI1
aI0
aI0
aI0
aI1
aF0.78000000000000003
aF20.699999999999999
aI4
aF14.7692
aa(lp11
I1
aI0
aI0
aI1
aI0
aI0
aI0
aI1
aI0
aI0
aI0
aI1
aF0.94999999999999996
aF36.700000000000003
aI1
aF20.030200000000001
aa(lp12
I1
aI0
aI0
aI1
aI0
aI0
aI0
aI1
aI0
aI0
aI0
aI1
aF1
aF46.700000000000003
aI0
aF37.678600000000003
aa(lp13
I1
aI0
aI0
aI1
aI0
aI0
aI0
aI1
aI0
aI0
aI0
aI1
aF1.1000000000000001
aF40.240000000000002
aI3
aF12.018800000000001
aa(lp14
I1
aI0
aI0
aI1
aI0
aI0
aI0
aI1
aI0
aI0
aI0
aI1
aF0.84999999999999998
aF10.9
aI5
aF8.3880400000000002
aa(lp15
I1
aI0
aI0
aI1
aI0
aI0
aI0
aI1
aI0
aI0
aI0
aI1
aF1.1399999999999999
aF35.899999999999999
aI7
aF9.0120400000000007
aa(lp16
I1
aI0
aI0
aI1
aI0
aI0
aI0
aI1
aI0
aI0
aI0
aI1
aF1.1000000000000001
aF32.299999999999997
aI2
aF20.484100000000002
aa(lp17
I1
aI0
aI0
aI1
aI0
aI0
aI0
aI1
aI0
aI0
aI0
aI1
aF1.2
aF42.840000000000003
aI6
aF38.2913
aa(lp18
I1
aI0
aI0
aI1
aI0
aI0
aI0
aI0
aI1
aI0
aI0
aI1
aF0.78000000000000003
aF20.699999999999999
aI4
aF14.893829999999999
aa(lp19
I1
aI0
aI0
aI1
aI0
aI0
aI0
aI0
aI1
aI0
aI0
aI1
aF0.94999999999999996
aF36.700000000000003
aI1
aF20.342199999999998
aa(lp20
I1
aI0
aI0
aI1
aI0
aI0
aI0
aI0
aI1
aI0
aI0
aI1
aF1
aF46.700000000000003
aI0
aF38.321899999999999
aa(lp21
I1
aI0
aI0
aI1
aI0
aI0
aI0
aI0
aI1
aI0
aI0
aI1
aF1.1000000000000001
aF40.240000000000002
aI3
aF11.777799999999999
aa(lp22
I1
aI0
aI0
aI1
aI0
aI0
aI0
aI0
aI1
aI0
aI0
aI1
aF0.84999999999999998
aF10.9
aI5
aF8.7763799999999996
aa(lp23
I1
aI0
aI0
aI1
aI0
aI0
aI0
aI0
aI1
aI0
aI0
aI1
aF1.1399999999999999
aF35.899999999999999
aI7
aF7.6336599999999999
aa(lp24
I1
aI0
aI0
aI1
aI0
aI0
aI0
aI0
aI1
aI0
aI0
aI1
aF1.1000000000000001
aF32.299999999999997
aI2
aF19.963899999999999
aa(lp25
I1
aI0
aI0
aI1
aI0
aI0
aI0
aI0
aI1
aI0
aI0
aI1
aF1.2
aF42.840000000000003
aI6
aF39.251399999999997
aa(lp26
I1
aI0
aI0
aI0
aI1
aI0
aI0
aI1
aI0
aI0
aI0
aI1
aF0.78000000000000003
aF20.699999999999999
aI4
aF14.370699999999999
aa(lp27
I1
aI0
aI0
aI0
aI1
aI0
aI0
aI1
aI0
aI0
aI0
aI1
aF0.94999999999999996
aF36.700000000000003
aI1
aF19.069099999999999
aa(lp28
I1
aI0
aI0
aI0
aI1
aI0
aI0
aI1
aI0
aI0
aI0
aI1
aF1
aF46.700000000000003
aI0
aF36.8307
aa(lp29
I1
aI0
aI0
aI0
aI1
aI0
aI0
aI1
aI0
aI0
aI0
aI1
aF1.1000000000000001
aF40.240000000000002
aI3
aF13.064299999999999
aa(lp30
I1
aI0
aI0
aI0
aI1
aI0
aI0
aI1
aI0
aI0
aI0
aI1
aF0.84999999999999998
aF10.9
aI5
aF12.4298
aa(lp31
I1
aI0
aI0
aI0
aI1
aI0
aI0
aI1
aI0
aI0
aI0
aI1
aF1.1399999999999999
aF35.899999999999999
aI7
aF5.718
aa(lp32
I1
aI0
aI0
aI0
aI1
aI0
aI0
aI1
aI0
aI0
aI0
aI1
aF1.1000000000000001
aF32.299999999999997
aI2
aF19.673999999999999
aa(lp33
I1
aI0
aI0
aI0
aI1
aI0
aI0
aI1
aI0
aI0
aI0
aI1
aF1.2
aF42.840000000000003
aI6
aF36.4146
aa(lp34
I1
aI0
aI0
aI0
aI1
aI0
aI0
aI0
aI1
aI0
aI0
aI1
aF0.78000000000000003
aF20.699999999999999
aI4
aF15.558299999999999
aa(lp35
I1
aI0
aI0
aI0
aI1
aI0
aI0
aI0
aI1
aI0
aI0
aI1
aF0.94999999999999996
aF36.700000000000003
aI1
aF20.8062
aa(lp36
I1
aI0
aI0
aI0
aI1
aI0
aI0
aI0
aI1
aI0
aI0
aI1
aF1
aF46.700000000000003
aI0
aF38.202300000000001
aa(lp37
I1
aI0
aI0
aI0
aI1
aI0
aI0
aI0
aI1
aI0
aI0
aI1
aF1.1000000000000001
aF40.240000000000002
aI3
aF11.8073
aa(lp38
I1
aI0
aI0
aI0
aI1
aI0
aI0
aI0
aI1
aI0
aI0
aI1
aF0.84999999999999998
aF10.9
aI5
aF12.8606
aa(lp39
I1
aI0
aI0
aI0
aI1
aI0
aI0
aI0
aI1
aI0
aI0
aI1
aF1.1399999999999999
aF35.899999999999999
aI7
aF7.6223900000000002
aa(lp40
I1
aI0
aI0
aI0
aI1
aI0
aI0
aI0
aI1
aI0
aI0
aI1
aF1.1000000000000001
aF32.299999999999997
aI2
aF21.503499999999999
aa(lp41
I1
aI0
aI0
aI0
aI1
aI0
aI0
aI0
aI1
aI0
aI0
aI1
aF1.2
aF42.840000000000003
aI6
aF37.0015
aa(lp42
I1
aI0
aI0
aI0
aI0
aI1
aI0
aI0
aI1
aI0
aI0
aI1
aF0.78000000000000003
aF20.699999999999999
aI4
aF15.080299999999999
aa(lp43
I1
aI0
aI0
aI0
aI0
aI1
aI0
aI0
aI1
aI0
aI0
aI1
aF0.94999999999999996
aF36.700000000000003
aI1
aF20.444500000000001
aa(lp44
I1
aI0
aI0
aI0
aI0
aI1
aI0
aI0
aI1
aI0
aI0
aI1
aF1
aF46.700000000000003
aI0
aF39.241900000000001
aa(lp45
I1
aI0
aI0
aI0
aI0
aI1
aI0
aI0
aI1
aI0
aI0
aI1
aF1.1000000000000001
aF40.240000000000002
aI3
aF12.108000000000001
aa(lp46
I1
aI0
aI0
aI0
aI0
aI1
aI0
aI0
aI1
aI0
aI0
aI1
aF0.84999999999999998
aF10.9
aI5
aF13.234999999999999
aa(lp47
I1
aI0
aI0
aI0
aI0
aI1
aI0
aI0
aI1
aI0
aI0
aI1
aF1.1399999999999999
aF35.899999999999999
aI7
aF8.5762599999999996
aa(lp48
I1
aI0
aI0
aI0
aI0
aI1
aI0
aI0
aI1
aI0
aI0
aI1
aF1.1000000000000001
aF32.299999999999997
aI2
aF21.459299999999999
aa(lp49
I1
aI0
aI0
aI0
aI0
aI1
aI0
aI0
aI1
aI0
aI0
aI1
aF1.2
aF42.840000000000003
aI6
aF40.660800000000002
aa(lp50
I0
aI1
aI0
aI0
aI1
aI0
aI0
aI1
aI0
aI0
aI0
aI1
aF0.78000000000000003
aF20.699999999999999
aI4
aF15.630800000000001
aa(lp51
I0
aI1
aI0
aI0
aI1
aI0
aI0
aI1
aI0
aI0
aI0
aI1
aF0.94999999999999996
aF36.700000000000003
aI1
aF20.598299999999998
aa(lp52
I0
aI1
aI0
aI0
aI1
aI0
aI0
aI1
aI0
aI0
aI0
aI1
aF1
aF46.700000000000003
aI0
aF37.772300000000001
aa(lp53
I0
aI1
aI0
aI0
aI1
aI0
aI0
aI1
aI0
aI0
aI0
aI1
aF1.1000000000000001
aF40.240000000000002
aI3
aF13.013500000000001
aa(lp54
I0
aI1
aI0
aI0
aI1
aI0
aI0
aI1
aI0
aI0
aI0
aI1
aF0.84999999999999998
aF10.9
aI5
aF13.779199999999999
aa(lp55
I0
aI1
aI0
aI0
aI1
aI0
aI0
aI1
aI0
aI0
aI0
aI1
aF1.1399999999999999
aF35.899999999999999
aI7
aF8.6371599999999997
aa(lp56
I0
aI1
aI0
aI0
aI1
aI0
aI0
aI1
aI0
aI0
aI0
aI1
aF1.1000000000000001
aF32.299999999999997
aI2
aF20.544499999999999
aa(lp57
I0
aI1
aI0
aI0
aI1
aI0
aI0
aI1
aI0
aI0
aI0
aI1
aF1.2
aF42.840000000000003
aI6
aF36.865200000000002
aa(lp58
I0
aI1
aI0
aI0
aI1
aI0
aI0
aI0
aI1
aI0
aI0
aI1
aF0.78000000000000003
aF20.699999999999999
aI4
aF15.2491
aa(lp59
I0
aI1
aI0
aI0
aI1
aI0
aI0
aI0
aI1
aI0
aI0
aI1
aF0.94999999999999996
aF36.700000000000003
aI1
aF19.933599999999998
aa(lp60
I0
aI1
aI0
aI0
aI1
aI0
aI0
aI0
aI1
aI0
aI0
aI1
aF1
aF46.700000000000003
aI0
aF41.195
aa(lp61
I0
aI1
aI0
aI0
aI1
aI0
aI0
aI0
aI1
aI0
aI0
aI1
aF1.1000000000000001
aF40.240000000000002
aI3
aF12.2506
aa(lp62
I0
aI1
aI0
aI0
aI1
aI0
aI0
aI0
aI1
aI0
aI0
aI1
aF0.84999999999999998
aF10.9
aI5
aF8.1820400000000006
aa(lp63
I0
aI1
aI0
aI0
aI1
aI0
aI0
aI0
aI1
aI0
aI0
aI1
aF1.1399999999999999
aF35.899999999999999
aI7
aF9.3831399999999991
aa(lp64
I0
aI1
aI0
aI0
aI1
aI0
aI0
aI0
aI1
aI0
aI0
aI1
aF1.1000000000000001
aF32.299999999999997
aI2
aF20.851199999999999
aa(lp65
I0
aI1
aI0
aI0
aI1
aI0
aI0
aI0
aI1
aI0
aI0
aI1
aF1.2
aF42.840000000000003
aI6
aF37.575000000000003
aa(lp66
I0
aI1
aI0
aI0
aI0
aI1
aI0
aI0
aI1
aI0
aI0
aI1
aF0.78000000000000003
aF20.699999999999999
aI4
aF15.122199999999999
aa(lp67
I0
aI1
aI0
aI0
aI0
aI1
aI0
aI0
aI1
aI0
aI0
aI1
aF0.94999999999999996
aF36.700000000000003
aI1
aF21.431699999999999
aa(lp68
I0
aI1
aI0
aI0
aI0
aI1
aI0
aI0
aI1
aI0
aI0
aI1
aF1
aF46.700000000000003
aI0
aF39.856900000000003
aa(lp69
I0
aI1
aI0
aI0
aI0
aI1
aI0
aI0
aI1
aI0
aI0
aI1
aF1.1000000000000001
aF40.240000000000002
aI3
aF13.494
aa(lp70
I0
aI1
aI0
aI0
aI0
aI1
aI0
aI0
aI1
aI0
aI0
aI1
aF0.84999999999999998
aF10.9
aI5
aF13.9055
aa(lp71
I0
aI1
aI0
aI0
aI0
aI1
aI0
aI0
aI1
aI0
aI0
aI1
aF1.1399999999999999
aF35.899999999999999
aI7
aF9.3284199999999995
aa(lp72
I0
aI1
aI0
aI0
aI0
aI1
aI0
aI0
aI1
aI0
aI0
aI1
aF1.1000000000000001
aF32.299999999999997
aI2
aF21.1953
aa(lp73
I0
aI1
aI0
aI0
aI0
aI1
aI0
aI0
aI1
aI0
aI0
aI1
aF1.2
aF42.840000000000003
aI6
aF37.875999999999998
aa(lp74
I0
aI0
aI1
aI0
aI0
aI1
aI0
aI0
aI1
aI0
aI0
aI1
aF0.78000000000000003
aF20.699999999999999
aI4
aF15.830399999999999
aa(lp75
I0
aI0
aI1
aI0
aI0
aI1
aI0
aI0
aI1
aI0
aI0
aI1
aF0.94999999999999996
aF36.700000000000003
aI1
aF21.572500000000002
aa(lp76
I0
aI0
aI1
aI0
aI0
aI1
aI0
aI0
aI1
aI0
aI0
aI1
aF1
aF46.700000000000003
aI0
aF40.267000000000003
aa(lp77
I0
aI0
aI1
aI0
aI0
aI1
aI0
aI0
aI1
aI0
aI0
aI1
aF1.1000000000000001
aF40.240000000000002
aI3
aF13.418799999999999
aa(lp78
I0
aI0
aI1
aI0
aI0
aI1
aI0
aI0
aI1
aI0
aI0
aI1
aF0.84999999999999998
aF10.9
aI5
aF14.156700000000001
aa(lp79
I0
aI0
aI1
aI0
aI0
aI1
aI0
aI0
aI1
aI0
aI0
aI1
aF1.1399999999999999
aF35.899999999999999
aI7
aF9.5796700000000001
aa(lp80
I0
aI0
aI1
aI0
aI0
aI1
aI0
aI0
aI1
aI0
aI0
aI1
aF1.1000000000000001
aF32.299999999999997
aI2
aF22.167200000000001
aa(lp81
I0
aI0
aI1
aI0
aI0
aI1
aI0
aI0
aI1
aI0
aI0
aI1
aF1.2
aF42.840000000000003
aI6
aF40.965699999999998
aa(lp82
I1
aI0
aI0
aI1
aI0
aI0
aI1
aI0
aI0
aI0
aI1
aI0
aF0.78000000000000003
aF20.699999999999999
aI4
aF12.7316
aa(lp83
I1
aI0
aI0
aI1
aI0
aI0
aI1
aI0
aI0
aI0
aI1
aI0
aF0.94999999999999996
aF36.700000000000003
aI1
aF19.061900000000001
aa(lp84
I1
aI0
aI0
aI1
aI0
aI0
aI1
aI0
aI0
aI0
aI1
aI0
aF1
aF46.700000000000003
aI0
aF37.485900000000001
aa(lp85
I1
aI0
aI0
aI1
aI0
aI0
aI1
aI0
aI0
aI0
aI1
aI0
aF1.1000000000000001
aF40.240000000000002
aI3
aF10.589499999999999
aa(lp86
I1
aI0
aI0
aI1
aI0
aI0
aI1
aI0
aI0
aI0
aI1
aI0
aF0.84999999999999998
aF10.9
aI5
aF10.8689
aa(lp87
I1
aI0
aI0
aI1
aI0
aI0
aI1
aI0
aI0
aI0
aI1
aI0
aF1.1399999999999999
aF35.899999999999999
aI7
aF7.5066100000000002
aa(lp88
I1
aI0
aI0
aI1
aI0
aI0
aI1
aI0
aI0
aI0
aI1
aI0
aF1.1000000000000001
aF32.299999999999997
aI2
aF14.868600000000001
aa(lp89
I1
aI0
aI0
aI1
aI0
aI0
aI1
aI0
aI0
aI0
aI1
aI0
aF1.2
aF42.840000000000003
aI6
aF32.188699999999997
aa(lp90
I1
aI0
aI0
aI1
aI0
aI0
aI0
aI1
aI0
aI0
aI1
aI0
aF0.78000000000000003
aF20.699999999999999
aI4
aF11.196999999999999
aa(lp91
I1
aI0
aI0
aI1
aI0
aI0
aI0
aI1
aI0
aI0
aI1
aI0
aF0.94999999999999996
aF36.700000000000003
aI1
aF16.8355
aa(lp92
I1
aI0
aI0
aI1
aI0
aI0
aI0
aI1
aI0
aI0
aI1
aI0
aF1
aF46.700000000000003
aI0
aF32.753500000000003
aa(lp93
I1
aI0
aI0
aI1
aI0
aI0
aI0
aI1
aI0
aI0
aI1
aI0
aF1.1000000000000001
aF40.240000000000002
aI3
aF11.859500000000001
aa(lp94
I1
aI0
aI0
aI1
aI0
aI0
aI0
aI1
aI0
aI0
aI1
aI0
aF0.84999999999999998
aF10.9
aI5
aF7.1825299999999999
aa(lp95
I1
aI0
aI0
aI1
aI0
aI0
aI0
aI1
aI0
aI0
aI1
aI0
aF1.1399999999999999
aF35.899999999999999
aI7
aF7.0133900000000002
aa(lp96
I1
aI0
aI0
aI1
aI0
aI0
aI0
aI1
aI0
aI0
aI1
aI0
aF1.1000000000000001
aF32.299999999999997
aI2
aF16.279499999999999
aa(lp97
I1
aI0
aI0
aI1
aI0
aI0
aI0
aI1
aI0
aI0
aI1
aI0
aF1.2
aF42.840000000000003
aI6
aF37.335299999999997
aa(lp98
I1
aI0
aI0
aI1
aI0
aI0
aI0
aI0
aI1
aI0
aI1
aI0
aF0.78000000000000003
aF20.699999999999999
aI4
aF14.452199999999999
aa(lp99
I1
aI0
aI0
aI1
aI0
aI0
aI0
aI0
aI1
aI0
aI1
aI0
aF0.94999999999999996
aF36.700000000000003
aI1
aF19.539999999999999
aa(lp100
I1
aI0
aI0
aI1
aI0
aI0
aI0
aI0
aI1
aI0
aI1
aI0
aF1
aF46.700000000000003
aI0
aF36.947200000000002
aa(lp101
I1
aI0
aI0
aI1
aI0
aI0
aI0
aI0
aI1
aI0
aI1
aI0
aF1.1000000000000001
aF40.240000000000002
aI3
aF12.517200000000001
aa(lp102
I1
aI0
aI0
aI1
aI0
aI0
aI0
aI0
aI1
aI0
aI1
aI0
aF0.84999999999999998
aF10.9
aI5
aF13.050599999999999
aa(lp103
I1
aI0
aI0
aI1
aI0
aI0
aI0
aI0
aI1
aI0
aI1
aI0
aF1.1399999999999999
aF35.899999999999999
aI7
aF7.4630400000000003
aa(lp104
I1
aI0
aI0
aI1
aI0
aI0
aI0
aI0
aI1
aI0
aI1
aI0
aF1.1000000000000001
aF32.299999999999997
aI2
aF15.9617
aa(lp105
I1
aI0
aI0
aI1
aI0
aI0
aI0
aI0
aI1
aI0
aI1
aI0
aF1.2
aF42.840000000000003
aI6
aF34.285600000000002
aa(lp106
I1
aI0
aI0
aI0
aI1
aI0
aI0
aI1
aI0
aI0
aI1
aI0
aF0.78000000000000003
aF20.699999999999999
aI4
aF12.1319
aa(lp107
I1
aI0
aI0
aI0
aI1
aI0
aI0
aI1
aI0
aI0
aI1
aI0
aF0.94999999999999996
aF36.700000000000003
aI1
aF18.1691
aa(lp108
I1
aI0
aI0
aI0
aI1
aI0
aI0
aI1
aI0
aI0
aI1
aI0
aF1
aF46.700000000000003
aI0
aF33.721400000000003
aa(lp109
I1
aI0
aI0
aI0
aI1
aI0
aI0
aI1
aI0
aI0
aI1
aI0
aF1.1000000000000001
aF40.240000000000002
aI3
aF11.213699999999999
aa(lp110
I1
aI0
aI0
aI0
aI1
aI0
aI0
aI1
aI0
aI0
aI1
aI0
aF0.84999999999999998
aF10.9
aI5
aF12.1778
aa(lp111
I1
aI0
aI0
aI0
aI1
aI0
aI0
aI1
aI0
aI0
aI1
aI0
aF1.1399999999999999
aF35.899999999999999
aI7
aF7.6883900000000001
aa(lp112
I1
aI0
aI0
aI0
aI1
aI0
aI0
aI1
aI0
aI0
aI1
aI0
aF1.1000000000000001
aF32.299999999999997
aI2
aF17.587499999999999
aa(lp113
I1
aI0
aI0
aI0
aI1
aI0
aI0
aI1
aI0
aI0
aI1
aI0
aF1.2
aF42.840000000000003
aI6
aF29.990500000000001
aa(lp114
I1
aI0
aI0
aI0
aI1
aI0
aI0
aI0
aI1
aI0
aI1
aI0
aF0.78000000000000003
aF20.699999999999999
aI4
aF13.402699999999999
aa(lp115
I1
aI0
aI0
aI0
aI1
aI0
aI0
aI0
aI1
aI0
aI1
aI0
aF0.94999999999999996
aF36.700000000000003
aI1
aF18.293199999999999
aa(lp116
I1
aI0
aI0
aI0
aI1
aI0
aI0
aI0
aI1
aI0
aI1
aI0
aF1
aF46.700000000000003
aI0
aF33.763500000000001
aa(lp117
I1
aI0
aI0
aI0
aI1
aI0
aI0
aI0
aI1
aI0
aI1
aI0
aF1.1000000000000001
aF40.240000000000002
aI3
aF12.1233
aa(lp118
I1
aI0
aI0
aI0
aI1
aI0
aI0
aI0
aI1
aI0
aI1
aI0
aF0.84999999999999998
aF10.9
aI5
aF13.136900000000001
aa(lp119
I1
aI0
aI0
aI0
aI1
aI0
aI0
aI0
aI1
aI0
aI1
aI0
aF1.1399999999999999
aF35.899999999999999
aI7
aF9.0747599999999995
aa(lp120
I1
aI0
aI0
aI0
aI1
aI0
aI0
aI0
aI1
aI0
aI1
aI0
aF1.1000000000000001
aF32.299999999999997
aI2
aF18.739999999999998
aa(lp121
I1
aI0
aI0
aI0
aI1
aI0
aI0
aI0
aI1
aI0
aI1
aI0
aF1.2
aF42.840000000000003
aI6
aF36.099400000000003
aa(lp122
I1
aI0
aI0
aI0
aI0
aI1
aI0
aI0
aI1
aI0
aI1
aI0
aF0.78000000000000003
aF20.699999999999999
aI4
aF13.9689
aa(lp123
I1
aI0
aI0
aI0
aI0
aI1
aI0
aI0
aI1
aI0
aI1
aI0
aF0.94999999999999996
aF36.700000000000003
aI1
aF19.4636
aa(lp124
I1
aI0
aI0
aI0
aI0
aI1
aI0
aI0
aI1
aI0
aI1
aI0
aF1
aF46.700000000000003
aI0
aF37.831600000000002
aa(lp125
I1
aI0
aI0
aI0
aI0
aI1
aI0
aI0
aI1
aI0
aI1
aI0
aF1.1000000000000001
aF40.240000000000002
aI3
aF13.433400000000001
aa(lp126
I1
aI0
aI0
aI0
aI0
aI1
aI0
aI0
aI1
aI0
aI1
aI0
aF0.84999999999999998
aF10.9
aI5
aF13.1868
aa(lp127
I1
aI0
aI0
aI0
aI0
aI1
aI0
aI0
aI1
aI0
aI1
aI0
aF1.1399999999999999
aF35.899999999999999
aI7
aF9.0399700000000003
aa(lp128
I1
aI0
aI0
aI0
aI0
aI1
aI0
aI0
aI1
aI0
aI1
aI0
aF1.1000000000000001
aF32.299999999999997
aI2
aF22.124500000000001
aa(lp129
I1
aI0
aI0
aI0
aI0
aI1
aI0
aI0
aI1
aI0
aI1
aI0
aF1.2
aF42.840000000000003
aI6
aF38.378999999999998
aa(lp130
I0
aI1
aI0
aI0
aI1
aI0
aI0
aI1
aI0
aI0
aI1
aI0
aF0.78000000000000003
aF20.699999999999999
aI4
aF12.263
aa(lp131
I0
aI1
aI0
aI0
aI1
aI0
aI0
aI1
aI0
aI0
aI1
aI0
aF0.94999999999999996
aF36.700000000000003
aI1
aF18.386900000000001
aa(lp132
I0
aI1
aI0
aI0
aI1
aI0
aI0
aI1
aI0
aI0
aI1
aI0
aF1
aF46.700000000000003
aI0
aF31.758700000000001
aa(lp133
I0
aI1
aI0
aI0
aI1
aI0
aI0
aI1
aI0
aI0
aI1
aI0
aF1.1000000000000001
aF40.240000000000002
aI3
aF11.959300000000001
aa(lp134
I0
aI1
aI0
aI0
aI1
aI0
aI0
aI1
aI0
aI0
aI1
aI0
aF0.84999999999999998
aF10.9
aI5
aF13.4499
aa(lp135
I0
aI1
aI0
aI0
aI1
aI0
aI0
aI1
aI0
aI0
aI1
aI0
aF1.1399999999999999
aF35.899999999999999
aI7
aF8.7203800000000005
aa(lp136
I0
aI1
aI0
aI0
aI1
aI0
aI0
aI1
aI0
aI0
aI1
aI0
aF1.1000000000000001
aF32.299999999999997
aI2
aF17.130199999999999
aa(lp137
I0
aI1
aI0
aI0
aI1
aI0
aI0
aI1
aI0
aI0
aI1
aI0
aF1.2
aF42.840000000000003
aI6
aF33.833100000000002
aa(lp138
I0
aI1
aI0
aI0
aI1
aI0
aI0
aI0
aI1
aI0
aI1
aI0
aF0.78000000000000003
aF20.699999999999999
aI4
aF15.3001
aa(lp139
I0
aI1
aI0
aI0
aI1
aI0
aI0
aI0
aI1
aI0
aI1
aI0
aF0.94999999999999996
aF36.700000000000003
aI1
aF20.079999999999998
aa(lp140
I0
aI1
aI0
aI0
aI1
aI0
aI0
aI0
aI1
aI0
aI1
aI0
aF1
aF46.700000000000003
aI0
aF36.743000000000002
aa(lp141
I0
aI1
aI0
aI0
aI1
aI0
aI0
aI0
aI1
aI0
aI1
aI0
aF1.1000000000000001
aF40.240000000000002
aI3
aF14.561400000000001
aa(lp142
I0
aI1
aI0
aI0
aI1
aI0
aI0
aI0
aI1
aI0
aI1
aI0
aF0.84999999999999998
aF10.9
aI5
aF13.0794
aa(lp143
I0
aI1
aI0
aI0
aI1
aI0
aI0
aI0
aI1
aI0
aI1
aI0
aF1.1399999999999999
aF35.899999999999999
aI7
aF10.528
aa(lp144
I0
aI1
aI0
aI0
aI1
aI0
aI0
aI0
aI1
aI0
aI1
aI0
aF1.1000000000000001
aF32.299999999999997
aI2
aF19.914400000000001
aa(lp145
I0
aI1
aI0
aI0
aI1
aI0
aI0
aI0
aI1
aI0
aI1
aI0
aF1.2
aF42.840000000000003
aI6
aF35.603200000000001
aa(lp146
I0
aI1
aI0
aI0
aI0
aI1
aI0
aI0
aI1
aI0
aI1
aI0
aF0.78000000000000003
aF20.699999999999999
aI4
aF16.5748
aa(lp147
I0
aI1
aI0
aI0
aI0
aI1
aI0
aI0
aI1
aI0
aI1
aI0
aF0.94999999999999996
aF36.700000000000003
aI1
aF22.261600000000001
aa(lp148
I0
aI1
aI0
aI0
aI0
aI1
aI0
aI0
aI1
aI0
aI1
aI0
aF1
aF46.700000000000003
aI0
aF36.727400000000003
aa(lp149
I0
aI1
aI0
aI0
aI0
aI1
aI0
aI0
aI1
aI0
aI1
aI0
aF1.1000000000000001
aF40.240000000000002
aI3
aF12.2958
aa(lp150
I0
aI1
aI0
aI0
aI0
aI1
aI0
aI0
aI1
aI0
aI1
aI0
aF0.84999999999999998
aF10.9
aI5
aF14.196
aa(lp151
I0
aI1
aI0
aI0
aI0
aI1
aI0
aI0
aI1
aI0
aI1
aI0
aF1.1399999999999999
aF35.899999999999999
aI7
aF10.013999999999999
aa(lp152
I0
aI1
aI0
aI0
aI0
aI1
aI0
aI0
aI1
aI0
aI1
aI0
aF1.1000000000000001
aF32.299999999999997
aI2
aF21.920400000000001
aa(lp153
I0
aI1
aI0
aI0
aI0
aI1
aI0
aI0
aI1
aI0
aI1
aI0
aF1.2
aF42.840000000000003
aI6
aF41.307600000000001
aa(lp154
I0
aI0
aI1
aI0
aI0
aI1
aI0
aI0
aI1
aI0
aI1
aI0
aF0.78000000000000003
aF20.699999999999999
aI4
aF14.845000000000001
aa(lp155
I0
aI0
aI1
aI0
aI0
aI1
aI0
aI0
aI1
aI0
aI1
aI0
aF0.94999999999999996
aF36.700000000000003
aI1
aF22.9528
aa(lp156
I0
aI0
aI1
aI0
aI0
aI1
aI0
aI0
aI1
aI0
aI1
aI0
aF1
aF46.700000000000003
aI0
aF38.1004
aa(lp157
I0
aI0
aI1
aI0
aI0
aI1
aI0
aI0
aI1
aI0
aI1
aI0
aF1.1000000000000001
aF40.240000000000002
aI3
aF12.678699999999999
aa(lp158
I0
aI0
aI1
aI0
aI0
aI1
aI0
aI0
aI1
aI0
aI1
aI0
aF0.84999999999999998
aF10.9
aI5
aF14.9923
aa(lp159
I0
aI0
aI1
aI0
aI0
aI1
aI0
aI0
aI1
aI0
aI1
aI0
aF1.1399999999999999
aF35.899999999999999
aI7
aF8.63246
aa(lp160
I0
aI0
aI1
aI0
aI0
aI1
aI0
aI0
aI1
aI0
aI1
aI0
aF1.1000000000000001
aF32.299999999999997
aI2
aF20.706900000000001
aa(lp161
I0
aI0
aI1
aI0
aI0
aI1
aI0
aI0
aI1
aI0
aI1
aI0
aF1.2
aF42.840000000000003
aI6
aF40.360100000000003
aa(lp162
I1
aI0
aI0
aI1
aI0
aI0
aI1
aI0
aI0
aI1
aI0
aI0
aF0.78000000000000003
aF20.699999999999999
aI4
aF13.4907
aa(lp163
I1
aI0
aI0
aI1
aI0
aI0
aI1
aI0
aI0
aI1
aI0
aI0
aF0.94999999999999996
aF36.700000000000003
aI1
aF17.678899999999999
aa(lp164
I1
aI0
aI0
aI1
aI0
aI0
aI1
aI0
aI0
aI1
aI0
aI0
aF1
aF46.700000000000003
aI0
aF34.306899999999999
aa(lp165
I1
aI0
aI0
aI1
aI0
aI0
aI1
aI0
aI0
aI1
aI0
aI0
aF1.1000000000000001
aF40.240000000000002
aI3
aF10.5573
aa(lp166
I1
aI0
aI0
aI1
aI0
aI0
aI1
aI0
aI0
aI1
aI0
aI0
aF0.84999999999999998
aF10.9
aI5
aF12.171099999999999
aa(lp167
I1
aI0
aI0
aI1
aI0
aI0
aI1
aI0
aI0
aI1
aI0
aI0
aF1.1399999999999999
aF35.899999999999999
aI7
aF6.9983899999999997
aa(lp168
I1
aI0
aI0
aI1
aI0
aI0
aI1
aI0
aI0
aI1
aI0
aI0
aF1.1000000000000001
aF32.299999999999997
aI2
aF18.573399999999999
aa(lp169
I1
aI0
aI0
aI1
aI0
aI0
aI1
aI0
aI0
aI1
aI0
aI0
aF1.2
aF42.840000000000003
aI6
aF35.991500000000002
aa(lp170
I1
aI0
aI0
aI1
aI0
aI0
aI0
aI1
aI0
aI1
aI0
aI0
aF0.78000000000000003
aF20.699999999999999
aI4
aF12.710000000000001
aa(lp171
I1
aI0
aI0
aI1
aI0
aI0
aI0
aI1
aI0
aI1
aI0
aI0
aF0.94999999999999996
aF36.700000000000003
aI1
aF16.98967
aa(lp172
I1
aI0
aI0
aI1
aI0
aI0
aI0
aI1
aI0
aI1
aI0
aI0
aF1
aF46.700000000000003
aI0
aF37.203099999999999
aa(lp173
I1
aI0
aI0
aI1
aI0
aI0
aI0
aI1
aI0
aI1
aI0
aI0
aF1.1000000000000001
aF40.240000000000002
aI3
aF12.220599999999999
aa(lp174
I1
aI0
aI0
aI1
aI0
aI0
aI0
aI1
aI0
aI1
aI0
aI0
aF0.84999999999999998
aF10.9
aI5
aF12.998900000000001
aa(lp175
I1
aI0
aI0
aI1
aI0
aI0
aI0
aI1
aI0
aI1
aI0
aI0
aF1.1399999999999999
aF35.899999999999999
aI7
aF6.85222
aa(lp176
I1
aI0
aI0
aI1
aI0
aI0
aI0
aI1
aI0
aI1
aI0
aI0
aF1.1000000000000001
aF32.299999999999997
aI2
aF19.5566
aa(lp177
I1
aI0
aI0
aI1
aI0
aI0
aI0
aI1
aI0
aI1
aI0
aI0
aF1.2
aF42.840000000000003
aI6
aF36.451599999999999
aa(lp178
I1
aI0
aI0
aI1
aI0
aI0
aI0
aI0
aI1
aI1
aI0
aI0
aF0.78000000000000003
aF20.699999999999999
aI4
aF14.452500000000001
aa(lp179
I1
aI0
aI0
aI1
aI0
aI0
aI0
aI0
aI1
aI1
aI0
aI0
aF0.94999999999999996
aF36.700000000000003
aI1
aF19.7302
aa(lp180
I1
aI0
aI0
aI1
aI0
aI0
aI0
aI0
aI1
aI1
aI0
aI0
aF1
aF46.700000000000003
aI0
aF36.365000000000002
aa(lp181
I1
aI0
aI0
aI1
aI0
aI0
aI0
aI0
aI1
aI1
aI0
aI0
aF1.1000000000000001
aF40.240000000000002
aI3
aF13.5808
aa(lp182
I1
aI0
aI0
aI1
aI0
aI0
aI0
aI0
aI1
aI1
aI0
aI0
aF0.84999999999999998
aF10.9
aI5
aF8.4193999999999996
aa(lp183
I1
aI0
aI0
aI1
aI0
aI0
aI0
aI0
aI1
aI1
aI0
aI0
aF1.1399999999999999
aF35.899999999999999
aI7
aF7.4892399999999997
aa(lp184
I1
aI0
aI0
aI1
aI0
aI0
aI0
aI0
aI1
aI1
aI0
aI0
aF1.1000000000000001
aF32.299999999999997
aI2
aF20.2639
aa(lp185
I1
aI0
aI0
aI1
aI0
aI0
aI0
aI0
aI1
aI1
aI0
aI0
aF1.2
aF42.840000000000003
aI6
aF35.997
aa(lp186
I1
aI0
aI0
aI0
aI1
aI0
aI0
aI1
aI0
aI1
aI0
aI0
aF0.78000000000000003
aF20.699999999999999
aI4
aF14.173400000000001
aa(lp187
I1
aI0
aI0
aI0
aI1
aI0
aI0
aI1
aI0
aI1
aI0
aI0
aF0.94999999999999996
aF36.700000000000003
aI1
aF18.415199999999999
aa(lp188
I1
aI0
aI0
aI0
aI1
aI0
aI0
aI1
aI0
aI1
aI0
aI0
aF1
aF46.700000000000003
aI0
aF35.637599999999999
aa(lp189
I1
aI0
aI0
aI0
aI1
aI0
aI0
aI1
aI0
aI1
aI0
aI0
aF1.1000000000000001
aF40.240000000000002
aI3
aF11.7547
aa(lp190
I1
aI0
aI0
aI0
aI1
aI0
aI0
aI1
aI0
aI1
aI0
aI0
aF0.84999999999999998
aF10.9
aI5
aF12.626200000000001
aa(lp191
I1
aI0
aI0
aI0
aI1
aI0
aI0
aI1
aI0
aI1
aI0
aI0
aF1.1399999999999999
aF35.899999999999999
aI7
aF9.3850499999999997
aa(lp192
I1
aI0
aI0
aI0
aI1
aI0
aI0
aI1
aI0
aI1
aI0
aI0
aF1.1000000000000001
aF32.299999999999997
aI2
aF19.9861
aa(lp193
I1
aI0
aI0
aI0
aI1
aI0
aI0
aI1
aI0
aI1
aI0
aI0
aF1.2
aF42.840000000000003
aI6
aF35.301400000000001
aa(lp194
I1
aI0
aI0
aI0
aI1
aI0
aI0
aI0
aI1
aI1
aI0
aI0
aF0.78000000000000003
aF20.699999999999999
aI4
aF14.6547
aa(lp195
I1
aI0
aI0
aI0
aI1
aI0
aI0
aI0
aI1
aI1
aI0
aI0
aF0.94999999999999996
aF36.700000000000003
aI1
aF20.474399999999999
aa(lp196
I1
aI0
aI0
aI0
aI1
aI0
aI0
aI0
aI1
aI1
aI0
aI0
aF1
aF46.700000000000003
aI0
aF37.490299999999998
aa(lp197
I1
aI0
aI0
aI0
aI1
aI0
aI0
aI0
aI1
aI1
aI0
aI0
aF1.1000000000000001
aF40.240000000000002
aI3
aF12.263
aa(lp198
I1
aI0
aI0
aI0
aI1
aI0
aI0
aI0
aI1
aI1
aI0
aI0
aF0.84999999999999998
aF10.9
aI5
aF13.6113
aa(lp199
I1
aI0
aI0
aI0
aI1
aI0
aI0
aI0
aI1
aI1
aI0
aI0
aF1.1399999999999999
aF35.899999999999999
aI7
aF9.3817299999999992
aa(lp200
I1
aI0
aI0
aI0
aI1
aI0
aI0
aI0
aI1
aI1
aI0
aI0
aF1.1000000000000001
aF32.299999999999997
aI2
aF20.8477
aa(lp201
I1
aI0
aI0
aI0
aI1
aI0
aI0
aI0
aI1
aI1
aI0
aI0
aF1.2
aF42.840000000000003
aI6
aF37.851399999999998
aa(lp202
I1
aI0
aI0
aI0
aI0
aI1
aI0
aI0
aI1
aI1
aI0
aI0
aF0.78000000000000003
aF20.699999999999999
aI4
aF15.520799999999999
aa(lp203
I1
aI0
aI0
aI0
aI0
aI1
aI0
aI0
aI1
aI1
aI0
aI0
aF0.94999999999999996
aF36.700000000000003
aI1
aF20.690899999999999
aa(lp204
I1
aI0
aI0
aI0
aI0
aI1
aI0
aI0
aI1
aI1
aI0
aI0
aF1
aF46.700000000000003
aI0
aF37.136899999999997
aa(lp205
I1
aI0
aI0
aI0
aI0
aI1
aI0
aI0
aI1
aI1
aI0
aI0
aF1.1000000000000001
aF40.240000000000002
aI3
aF11.861599999999999
aa(lp206
I1
aI0
aI0
aI0
aI0
aI1
aI0
aI0
aI1
aI1
aI0
aI0
aF0.84999999999999998
aF10.9
aI5
aF13.3619
aa(lp207
I1
aI0
aI0
aI0
aI0
aI1
aI0
aI0
aI1
aI1
aI0
aI0
aF1.1399999999999999
aF35.899999999999999
aI7
aF9.2724200000000003
aa(lp208
I1
aI0
aI0
aI0
aI0
aI1
aI0
aI0
aI1
aI1
aI0
aI0
aF1.1000000000000001
aF32.299999999999997
aI2
aF20.980499999999999
aa(lp209
I1
aI0
aI0
aI0
aI0
aI1
aI0
aI0
aI1
aI1
aI0
aI0
aF1.2
aF42.840000000000003
aI6
aF37.794400000000003
aa(lp210
I0
aI1
aI0
aI0
aI1
aI0
aI0
aI1
aI0
aI1
aI0
aI0
aF0.78000000000000003
aF20.699999999999999
aI4
aF15.1396
aa(lp211
I0
aI1
aI0
aI0
aI1
aI0
aI0
aI1
aI0
aI1
aI0
aI0
aF0.94999999999999996
aF36.700000000000003
aI1
aF19.136900000000001
aa(lp212
I0
aI1
aI0
aI0
aI1
aI0
aI0
aI1
aI0
aI1
aI0
aI0
aF1
aF46.700000000000003
aI0
aF36.029800000000002
aa(lp213
I0
aI1
aI0
aI0
aI1
aI0
aI0
aI1
aI0
aI1
aI0
aI0
aF1.1000000000000001
aF40.240000000000002
aI3
aF13.2621
aa(lp214
I0
aI1
aI0
aI0
aI1
aI0
aI0
aI1
aI0
aI1
aI0
aI0
aF0.84999999999999998
aF10.9
aI5
aF14.012499999999999
aa(lp215
I0
aI1
aI0
aI0
aI1
aI0
aI0
aI1
aI0
aI1
aI0
aI0
aF1.1399999999999999
aF35.899999999999999
aI7
aF6.7961099999999997
aa(lp216
I0
aI1
aI0
aI0
aI1
aI0
aI0
aI1
aI0
aI1
aI0
aI0
aF1.1000000000000001
aF32.299999999999997
aI2
aF18.800799999999999
aa(lp217
I0
aI1
aI0
aI0
aI1
aI0
aI0
aI1
aI0
aI1
aI0
aI0
aF1.2
aF42.840000000000003
aI6
aF35.9726
aa(lp218
I0
aI1
aI0
aI0
aI1
aI0
aI0
aI0
aI1
aI1
aI0
aI0
aF0.78000000000000003
aF20.699999999999999
aI4
aF14.789999999999999
aa(lp219
I0
aI1
aI0
aI0
aI1
aI0
aI0
aI0
aI1
aI1
aI0
aI0
aF0.94999999999999996
aF36.700000000000003
aI1
aF20.459700000000002
aa(lp220
I0
aI1
aI0
aI0
aI1
aI0
aI0
aI0
aI1
aI1
aI0
aI0
aF1
aF46.700000000000003
aI0
aF36.4148
aa(lp221
I0
aI1
aI0
aI0
aI1
aI0
aI0
aI0
aI1
aI1
aI0
aI0
aF1.1000000000000001
aF40.240000000000002
aI3
aF11.914999999999999
aa(lp222
I0
aI1
aI0
aI0
aI1
aI0
aI0
aI0
aI1
aI1
aI0
aI0
aF0.84999999999999998
aF10.9
aI5
aF8.0734600000000007
aa(lp223
I0
aI1
aI0
aI0
aI1
aI0
aI0
aI0
aI1
aI1
aI0
aI0
aF1.1399999999999999
aF35.899999999999999
aI7
aF9.0905799999999992
aa(lp224
I0
aI1
aI0
aI0
aI1
aI0
aI0
aI0
aI1
aI1
aI0
aI0
aF1.1000000000000001
aF32.299999999999997
aI2
aF20.4895
aa(lp225
I0
aI1
aI0
aI0
aI1
aI0
aI0
aI0
aI1
aI1
aI0
aI0
aF1.2
aF42.840000000000003
aI6
aF36.319899999999997
aa(lp226
I0
aI1
aI0
aI0
aI0
aI1
aI0
aI0
aI1
aI1
aI0
aI0
aF0.78000000000000003
aF20.699999999999999
aI4
aF14.9674
aa(lp227
I0
aI1
aI0
aI0
aI0
aI1
aI0
aI0
aI1
aI1
aI0
aI0
aF0.94999999999999996
aF36.700000000000003
aI1
aF21.232399999999998
aa(lp228
I0
aI1
aI0
aI0
aI0
aI1
aI0
aI0
aI1
aI1
aI0
aI0
aF1
aF46.700000000000003
aI0
aF39.515000000000001
aa(lp229
I0
aI1
aI0
aI0
aI0
aI1
aI0
aI0
aI1
aI1
aI0
aI0
aF1.1000000000000001
aF40.240000000000002
aI3
aF12.996700000000001
aa(lp230
I0
aI1
aI0
aI0
aI0
aI1
aI0
aI0
aI1
aI1
aI0
aI0
aF0.84999999999999998
aF10.9
aI5
aF13.6623
aa(lp231
I0
aI1
aI0
aI0
aI0
aI1
aI0
aI0
aI1
aI1
aI0
aI0
aF1.1399999999999999
aF35.899999999999999
aI7
aF9.8090499999999992
aa(lp232
I0
aI1
aI0
aI0
aI0
aI1
aI0
aI0
aI1
aI1
aI0
aI0
aF1.1000000000000001
aF32.299999999999997
aI2
aF21.917300000000001
aa(lp233
I0
aI1
aI0
aI0
aI0
aI1
aI0
aI0
aI1
aI1
aI0
aI0
aF1.2
aF42.840000000000003
aI6
aF37.152999999999999
aa(lp234
I0
aI0
aI1
aI0
aI0
aI1
aI0
aI0
aI1
aI1
aI0
aI0
aF0.78000000000000003
aF20.699999999999999
aI4
aF15.867900000000001
aa(lp235
I0
aI0
aI1
aI0
aI0
aI1
aI0
aI0
aI1
aI1
aI0
aI0
aF0.94999999999999996
aF36.700000000000003
aI1
aF19.9618
aa(lp236
I0
aI0
aI1
aI0
aI0
aI1
aI0
aI0
aI1
aI1
aI0
aI0
aF1
aF46.700000000000003
aI0
aF40.593499999999999
aa(lp237
I0
aI0
aI1
aI0
aI0
aI1
aI0
aI0
aI1
aI1
aI0
aI0
aF1.1000000000000001
aF40.240000000000002
aI3
aF13.1136
aa(lp238
I0
aI0
aI1
aI0
aI0
aI1
aI0
aI0
aI1
aI1
aI0
aI0
aF0.84999999999999998
aF10.9
aI5
aF13.8972
aa(lp239
I0
aI0
aI1
aI0
aI0
aI1
aI0
aI0
aI1
aI1
aI0
aI0
aF1.1399999999999999
aF35.899999999999999
aI7
aF9.4023099999999999
aa(lp240
I0
aI0
aI1
aI0
aI0
aI1
aI0
aI0
aI1
aI1
aI0
aI0
aF1.1000000000000001
aF32.299999999999997
aI2
aF21.912800000000001
aa(lp241
I0
aI0
aI1
aI0
aI0
aI1
aI0
aI0
aI1
aI1
aI0
aI0
aF1.2
aF42.840000000000003
aI6
aF41.032499999999999
aa.